; ModuleID = '36/1313.c'
source_filename = "36/1313.c"
target datalayout = "e-m:e-p270:32:32-p271:32:32-p272:64:64-i64:64-f80:128-n8:16:32:64-S128"
target triple = "x86_64-pc-linux-gnu"

@.str = private unnamed_addr constant [5 x i8] c"%s%s\00", align 1
@.str.1 = private unnamed_addr constant [3 x i8] c"NO\00", align 1
@.str.2 = private unnamed_addr constant [4 x i8] c"YES\00", align 1

; Function Attrs: noinline nounwind uwtable
define dso_local void @main() #0 {
  %1 = alloca [100 x i8], align 16
  %2 = alloca [100 x i8], align 16
  %3 = alloca i32, align 4
  %4 = alloca i32, align 4
  %5 = alloca i32, align 4
  %6 = alloca i32, align 4
  %7 = alloca i32, align 4
  %8 = alloca i32, align 4
  %9 = getelementptr inbounds [100 x i8], [100 x i8]* %1, i64 0, i64 0
  %10 = getelementptr inbounds [100 x i8], [100 x i8]* %2, i64 0, i64 0
  %11 = call i32 (i8*, ...) @__isoc99_scanf(i8* getelementptr inbounds ([5 x i8], [5 x i8]* @.str, i64 0, i64 0), i8* %9, i8* %10)
  %12 = getelementptr inbounds [100 x i8], [100 x i8]* %1, i64 0, i64 0
  %13 = call i64 @strlen(i8* %12) #3
  %14 = trunc i64 %13 to i32
  store i32 %14, i32* %5, align 4
  %15 = getelementptr inbounds [100 x i8], [100 x i8]* %2, i64 0, i64 0
  %16 = call i64 @strlen(i8* %15) #3
  %17 = trunc i64 %16 to i32
  store i32 %17, i32* %6, align 4
  %18 = load i32, i32* %5, align 4
  %19 = load i32, i32* %6, align 4
  %20 = icmp ne i32 %18, %19
  br i1 %20, label %21, label %23

21:                                               ; preds = %0
  %22 = call i32 (i8*, ...) @printf(i8* getelementptr inbounds ([3 x i8], [3 x i8]* @.str.1, i64 0, i64 0))
  br label %140

23:                                               ; preds = %0
  store i32 1, i32* %7, align 4
  br label %24

24:                                               ; preds = %73, %23
  %25 = load i32, i32* %7, align 4
  %26 = load i32, i32* %5, align 4
  %27 = icmp slt i32 %25, %26
  br i1 %27, label %28, label %76

28:                                               ; preds = %24
  store i32 0, i32* %8, align 4
  br label %29

29:                                               ; preds = %69, %28
  %30 = load i32, i32* %8, align 4
  %31 = load i32, i32* %5, align 4
  %32 = load i32, i32* %7, align 4
  %33 = sub nsw i32 %31, %32
  %34 = icmp slt i32 %30, %33
  br i1 %34, label %35, label %72

35:                                               ; preds = %29
  %36 = load i32, i32* %8, align 4
  %37 = sext i32 %36 to i64
  %38 = getelementptr inbounds [100 x i8], [100 x i8]* %1, i64 0, i64 %37
  %39 = load i8, i8* %38, align 1
  %40 = sext i8 %39 to i32
  %41 = load i32, i32* %8, align 4
  %42 = add nsw i32 %41, 1
  %43 = sext i32 %42 to i64
  %44 = getelementptr inbounds [100 x i8], [100 x i8]* %1, i64 0, i64 %43
  %45 = load i8, i8* %44, align 1
  %46 = sext i8 %45 to i32
  %47 = icmp sgt i32 %40, %46
  br i1 %47, label %48, label %68

48:                                               ; preds = %35
  %49 = load i32, i32* %8, align 4
  %50 = add nsw i32 %49, 1
  %51 = sext i32 %50 to i64
  %52 = getelementptr inbounds [100 x i8], [100 x i8]* %1, i64 0, i64 %51
  %53 = load i8, i8* %52, align 1
  %54 = sext i8 %53 to i32
  store i32 %54, i32* %4, align 4
  %55 = load i32, i32* %8, align 4
  %56 = sext i32 %55 to i64
  %57 = getelementptr inbounds [100 x i8], [100 x i8]* %1, i64 0, i64 %56
  %58 = load i8, i8* %57, align 1
  %59 = load i32, i32* %8, align 4
  %60 = add nsw i32 %59, 1
  %61 = sext i32 %60 to i64
  %62 = getelementptr inbounds [100 x i8], [100 x i8]* %1, i64 0, i64 %61
  store i8 %58, i8* %62, align 1
  %63 = load i32, i32* %4, align 4
  %64 = trunc i32 %63 to i8
  %65 = load i32, i32* %8, align 4
  %66 = sext i32 %65 to i64
  %67 = getelementptr inbounds [100 x i8], [100 x i8]* %1, i64 0, i64 %66
  store i8 %64, i8* %67, align 1
  br label %68

68:                                               ; preds = %48, %35
  br label %69

69:                                               ; preds = %68
  %70 = load i32, i32* %8, align 4
  %71 = add nsw i32 %70, 1
  store i32 %71, i32* %8, align 4
  br label %29

72:                                               ; preds = %29
  br label %73

73:                                               ; preds = %72
  %74 = load i32, i32* %7, align 4
  %75 = add nsw i32 %74, 1
  store i32 %75, i32* %7, align 4
  br label %24

76:                                               ; preds = %24
  store i32 1, i32* %7, align 4
  br label %77

77:                                               ; preds = %126, %76
  %78 = load i32, i32* %7, align 4
  %79 = load i32, i32* %6, align 4
  %80 = icmp slt i32 %78, %79
  br i1 %80, label %81, label %129

81:                                               ; preds = %77
  store i32 0, i32* %8, align 4
  br label %82

82:                                               ; preds = %122, %81
  %83 = load i32, i32* %8, align 4
  %84 = load i32, i32* %6, align 4
  %85 = load i32, i32* %7, align 4
  %86 = sub nsw i32 %84, %85
  %87 = icmp slt i32 %83, %86
  br i1 %87, label %88, label %125

88:                                               ; preds = %82
  %89 = load i32, i32* %8, align 4
  %90 = sext i32 %89 to i64
  %91 = getelementptr inbounds [100 x i8], [100 x i8]* %2, i64 0, i64 %90
  %92 = load i8, i8* %91, align 1
  %93 = sext i8 %92 to i32
  %94 = load i32, i32* %8, align 4
  %95 = add nsw i32 %94, 1
  %96 = sext i32 %95 to i64
  %97 = getelementptr inbounds [100 x i8], [100 x i8]* %2, i64 0, i64 %96
  %98 = load i8, i8* %97, align 1
  %99 = sext i8 %98 to i32
  %100 = icmp sgt i32 %93, %99
  br i1 %100, label %101, label %121

101:                                              ; preds = %88
  %102 = load i32, i32* %8, align 4
  %103 = add nsw i32 %102, 1
  %104 = sext i32 %103 to i64
  %105 = getelementptr inbounds [100 x i8], [100 x i8]* %2, i64 0, i64 %104
  %106 = load i8, i8* %105, align 1
  %107 = sext i8 %106 to i32
  store i32 %107, i32* %4, align 4
  %108 = load i32, i32* %8, align 4
  %109 = sext i32 %108 to i64
  %110 = getelementptr inbounds [100 x i8], [100 x i8]* %2, i64 0, i64 %109
  %111 = load i8, i8* %110, align 1
  %112 = load i32, i32* %8, align 4
  %113 = add nsw i32 %112, 1
  %114 = sext i32 %113 to i64
  %115 = getelementptr inbounds [100 x i8], [100 x i8]* %2, i64 0, i64 %114
  store i8 %111, i8* %115, align 1
  %116 = load i32, i32* %4, align 4
  %117 = trunc i32 %116 to i8
  %118 = load i32, i32* %8, align 4
  %119 = sext i32 %118 to i64
  %120 = getelementptr inbounds [100 x i8], [100 x i8]* %2, i64 0, i64 %119
  store i8 %117, i8* %120, align 1
  br label %121

121:                                              ; preds = %101, %88
  br label %122

122:                                              ; preds = %121
  %123 = load i32, i32* %8, align 4
  %124 = add nsw i32 %123, 1
  store i32 %124, i32* %8, align 4
  br label %82

125:                                              ; preds = %82
  br label %126

126:                                              ; preds = %125
  %127 = load i32, i32* %7, align 4
  %128 = add nsw i32 %127, 1
  store i32 %128, i32* %7, align 4
  br label %77

129:                                              ; preds = %77
  %130 = getelementptr inbounds [100 x i8], [100 x i8]* %1, i64 0, i64 0
  %131 = getelementptr inbounds [100 x i8], [100 x i8]* %2, i64 0, i64 0
  %132 = call i32 @strcmp(i8* %130, i8* %131) #3
  store i32 %132, i32* %3, align 4
  %133 = load i32, i32* %3, align 4
  %134 = icmp eq i32 %133, 0
  br i1 %134, label %135, label %137

135:                                              ; preds = %129
  %136 = call i32 (i8*, ...) @printf(i8* getelementptr inbounds ([4 x i8], [4 x i8]* @.str.2, i64 0, i64 0))
  br label %139

137:                                              ; preds = %129
  %138 = call i32 (i8*, ...) @printf(i8* getelementptr inbounds ([3 x i8], [3 x i8]* @.str.1, i64 0, i64 0))
  br label %139

139:                                              ; preds = %137, %135
  br label %140

140:                                              ; preds = %139, %21
  ret void
}

declare dso_local i32 @__isoc99_scanf(i8*, ...) #1

; Function Attrs: nounwind readonly
declare dso_local i64 @strlen(i8*) #2

declare dso_local i32 @printf(i8*, ...) #1

; Function Attrs: nounwind readonly
declare dso_local i32 @strcmp(i8*, i8*) #2


!llvm.module.flags = !{!0}
!llvm.ident = !{!1}

!0 = !{i32 1, !"wchar_size", i32 4}
!1 = !{!"clang version 10.0.0-4ubuntu1 "}
